target datalayout = "e-m:e-p270:32:32-p271:32:32-p272:64:64-i64:64-i128:128-f80:128-n8:16:32:64-S128"
target triple = "x86_64-pc-linux-gnu"

%class.bv_rewriter_core = type { ptr, %class.bv_util, %class.obj_ref }
%class.bv_util = type { %class.bv_recognizers, ptr, ptr }
%class.bv_recognizers = type { i32 }
%class.obj_ref = type { ptr, ptr }
%class.ast = type { i32, i32, i32, i32 }

; Function Attrs: mustprogress nounwind uwtable
define linkonce_odr hidden noundef i32 @_ZNK3ast13get_ref_countEv(ptr noundef nonnull align 4 dereferenceable(16) %0) #6 comdat align 2 {
  %2 = alloca ptr, align 8
  store ptr %0, ptr %2, align 8, !tbaa !141
  %3 = load ptr, ptr %2, align 8
  %4 = getelementptr inbounds nuw %class.ast, ptr %3, i32 0, i32 2
  %5 = load i32, ptr %4, align 4, !tbaa !229
  ret i32 %5
}

; Function Attrs: mustprogress nounwind uwtable
define linkonce_odr hidden void @_ZN3ast7dec_refEv(ptr noundef nonnull align 4 dereferenceable(16) %0) #6 comdat align 2 {
  %2 = alloca ptr, align 8
  store ptr %0, ptr %2, align 8, !tbaa !141
  %3 = load ptr, ptr %2, align 8
  %4 = getelementptr inbounds nuw %class.ast, ptr %3, i32 0, i32 2
  %5 = load i32, ptr %4, align 4, !tbaa !229
  %6 = add i32 %5, -1
  store i32 %6, ptr %4, align 4, !tbaa !229
  ret void
}

; Function Attrs: mustprogress uwtable
define linkonce_odr hidden void @_ZN11ast_manager7dec_refEP3ast(ptr noundef nonnull align 8 dereferenceable(976) %0, ptr noundef %1) #4 comdat align 2 {
  %3 = alloca ptr, align 8
  %4 = alloca ptr, align 8
  store ptr %0, ptr %3, align 8, !tbaa !137
  store ptr %1, ptr %4, align 8, !tbaa !141
  %5 = load ptr, ptr %3, align 8
  %6 = load ptr, ptr %4, align 8, !tbaa !141
  %7 = icmp ne ptr %6, null
  br i1 %7, label %8, label %16

8:                                                ; preds = %2
  %9 = load ptr, ptr %4, align 8, !tbaa !141
  call void @_ZN3ast7dec_refEv(ptr noundef nonnull align 4 dereferenceable(16) %9)
  %10 = load ptr, ptr %4, align 8, !tbaa !141
  %11 = call noundef i32 @_ZNK3ast13get_ref_countEv(ptr noundef nonnull align 4 dereferenceable(16) %10)
  %12 = icmp eq i32 %11, 0
  br i1 %12, label %13, label %15

13:                                               ; preds = %8
  %14 = load ptr, ptr %4, align 8, !tbaa !141
  call void @_ZN11ast_manager11delete_nodeEP3ast(ptr noundef nonnull align 8 dereferenceable(976) %5, ptr noundef %14)
  br label %15

15:                                               ; preds = %13, %8
  br label %16

16:                                               ; preds = %15, %2
  ret void
}

; Function Attrs: mustprogress nounwind uwtable
define linkonce_odr hidden void @_ZN3ast7inc_refEv(ptr noundef nonnull align 4 dereferenceable(16) %0) #6 comdat align 2 {
  %2 = alloca ptr, align 8
  store ptr %0, ptr %2, align 8, !tbaa !141
  %3 = load ptr, ptr %2, align 8
  %4 = getelementptr inbounds nuw %class.ast, ptr %3, i32 0, i32 2
  %5 = load i32, ptr %4, align 4, !tbaa !229
  %6 = add i32 %5, 1
  store i32 %6, ptr %4, align 4, !tbaa !229
  ret void
}

; Function Attrs: mustprogress uwtable
define linkonce_odr hidden void @_ZN7obj_refI4expr11ast_managerE7dec_refEv(ptr noundef nonnull align 8 dereferenceable(16) %0) #4 comdat align 2 {
  %2 = alloca ptr, align 8
  store ptr %0, ptr %2, align 8, !tbaa !67
  %3 = load ptr, ptr %2, align 8
  %4 = getelementptr inbounds nuw %class.obj_ref, ptr %3, i32 0, i32 0
  %5 = load ptr, ptr %4, align 8, !tbaa !81
  %6 = icmp ne ptr %5, null
  br i1 %6, label %7, label %12

7:                                                ; preds = %1
  %8 = getelementptr inbounds nuw %class.obj_ref, ptr %3, i32 0, i32 1
  %9 = load ptr, ptr %8, align 8, !tbaa !80
  %10 = getelementptr inbounds nuw %class.obj_ref, ptr %3, i32 0, i32 0
  %11 = load ptr, ptr %10, align 8, !tbaa !81
  call void @_ZN11ast_manager7dec_refEP3ast(ptr noundef nonnull align 8 dereferenceable(976) %9, ptr noundef %11)
  br label %12

12:                                               ; preds = %7, %1
  ret void
}

; Function Attrs: mustprogress uwtable
define linkonce_odr hidden void @_ZN11ast_manager7inc_refEP3ast(ptr noundef nonnull align 8 dereferenceable(976) %0, ptr noundef %1) #4 comdat align 2 {
  %3 = alloca ptr, align 8
  %4 = alloca ptr, align 8
  store ptr %0, ptr %3, align 8, !tbaa !137
  store ptr %1, ptr %4, align 8, !tbaa !141
  %5 = load ptr, ptr %4, align 8, !tbaa !141
  %6 = icmp ne ptr %5, null
  br i1 %6, label %7, label %9

7:                                                ; preds = %2
  %8 = load ptr, ptr %4, align 8, !tbaa !141
  call void @_ZN3ast7inc_refEv(ptr noundef nonnull align 4 dereferenceable(16) %8)
  br label %9

9:                                                ; preds = %7, %2
  ret void
}

; Function Attrs: mustprogress nounwind uwtable
define linkonce_odr hidden noundef i32 @_ZNK14bv_recognizers7get_fidEv(ptr noundef nonnull align 4 dereferenceable(4) %0) #6 comdat align 2 {
  %2 = alloca ptr, align 8
  store ptr %0, ptr %2, align 8, !tbaa !97
  %3 = load ptr, ptr %2, align 8
  %4 = getelementptr inbounds nuw %class.bv_recognizers, ptr %3, i32 0, i32 0
  %5 = load i32, ptr %4, align 4, !tbaa !147
  ret i32 %5
}

; Function Attrs: mustprogress uwtable
define linkonce_odr hidden noundef nonnull align 8 dereferenceable(16) ptr @_ZN7obj_refI4expr11ast_managerEaSEPS0_(ptr noundef nonnull align 8 dereferenceable(16) %0, ptr noundef %1) #4 comdat align 2 {
  %3 = alloca ptr, align 8
  %4 = alloca ptr, align 8
  store ptr %0, ptr %3, align 8, !tbaa !67
  store ptr %1, ptr %4, align 8, !tbaa !71
  %5 = load ptr, ptr %3, align 8
  %6 = load ptr, ptr %4, align 8, !tbaa !71
  %7 = icmp ne ptr %6, null
  br i1 %7, label %8, label %12

8:                                                ; preds = %2
  %9 = getelementptr inbounds nuw %class.obj_ref, ptr %5, i32 0, i32 1
  %10 = load ptr, ptr %9, align 8, !tbaa !80
  %11 = load ptr, ptr %4, align 8, !tbaa !71
  call void @_ZN11ast_manager7inc_refEP3ast(ptr noundef nonnull align 8 dereferenceable(976) %10, ptr noundef %11)
  br label %12

12:                                               ; preds = %8, %2
  call void @_ZN7obj_refI4expr11ast_managerE7dec_refEv(ptr noundef nonnull align 8 dereferenceable(16) %5)
  %13 = load ptr, ptr %4, align 8, !tbaa !71
  %14 = getelementptr inbounds nuw %class.obj_ref, ptr %5, i32 0, i32 0
  store ptr %13, ptr %14, align 8, !tbaa !81
  ret ptr %5
}

; Function Attrs: mustprogress uwtable
define linkonce_odr hidden noundef ptr @_ZN11ast_manager6mk_notEP4expr(ptr noundef nonnull align 8 dereferenceable(976) %0, ptr noundef %1) #4 comdat align 2 {
  %3 = alloca ptr, align 8
  %4 = alloca ptr, align 8
  store ptr %0, ptr %3, align 8, !tbaa !137
  store ptr %1, ptr %4, align 8, !tbaa !71
  %5 = load ptr, ptr %3, align 8
  %6 = load ptr, ptr %4, align 8, !tbaa !71
  %7 = call noundef ptr @_ZN11ast_manager6mk_appEiiP4expr(ptr noundef nonnull align 8 dereferenceable(976) %5, i32 noundef 0, i32 noundef 8, ptr noundef %6)
  ret ptr %7
}

; Function Attrs: mustprogress uwtable
define linkonce_odr hidden noundef ptr @_ZN7bv_util6mk_uleEP4exprS1_(ptr noundef nonnull align 8 dereferenceable(24) %0, ptr noundef %1, ptr noundef %2) #4 comdat align 2 {
  %4 = alloca ptr, align 8
  %5 = alloca ptr, align 8
  %6 = alloca ptr, align 8
  store ptr %0, ptr %4, align 8, !tbaa !125
  store ptr %1, ptr %5, align 8, !tbaa !71
  store ptr %2, ptr %6, align 8, !tbaa !71
  %7 = load ptr, ptr %4, align 8
  %8 = getelementptr inbounds nuw %class.bv_util, ptr %7, i32 0, i32 1
  %9 = load ptr, ptr %8, align 8, !tbaa !136
  %10 = call noundef i32 @_ZNK14bv_recognizers7get_fidEv(ptr noundef nonnull align 4 dereferenceable(4) %7)
  %11 = load ptr, ptr %5, align 8, !tbaa !71
  %12 = load ptr, ptr %6, align 8, !tbaa !71
  %13 = call noundef ptr @_ZN11ast_manager6mk_appEiiP4exprS1_(ptr noundef nonnull align 8 dereferenceable(976) %9, i32 noundef %10, i32 noundef 22, ptr noundef %11, ptr noundef %12)
  ret ptr %13
}

; Function Attrs: mustprogress uwtable
define hidden noundef i32 @_ZN11bv_rewriter6mk_ultEP4exprS1_R7obj_refIS0_11ast_managerE(ptr noundef nonnull align 8 dereferenceable(157) %0, ptr noundef %1, ptr noundef %2, ptr noundef nonnull align 8 dereferenceable(16) %3) #4 align 2 {
  %5 = alloca ptr, align 8
  %6 = alloca ptr, align 8
  %7 = alloca ptr, align 8
  %8 = alloca ptr, align 8
  store ptr %0, ptr %5, align 8, !tbaa !3
  store ptr %1, ptr %6, align 8, !tbaa !71
  store ptr %2, ptr %7, align 8, !tbaa !71
  store ptr %3, ptr %8, align 8, !tbaa !67
  %9 = load ptr, ptr %5, align 8
  %10 = getelementptr inbounds nuw %class.bv_rewriter_core, ptr %9, i32 0, i32 0
  %11 = load ptr, ptr %10, align 8, !tbaa !82
  %12 = getelementptr inbounds nuw %class.bv_rewriter_core, ptr %9, i32 0, i32 1
  %13 = load ptr, ptr %7, align 8, !tbaa !71
  %14 = load ptr, ptr %6, align 8, !tbaa !71
  %15 = call noundef ptr @_ZN7bv_util6mk_uleEP4exprS1_(ptr noundef nonnull align 8 dereferenceable(24) %12, ptr noundef %13, ptr noundef %14)
  %16 = call noundef ptr @_ZN11ast_manager6mk_notEP4expr(ptr noundef nonnull align 8 dereferenceable(976) %11, ptr noundef %15)
  %17 = load ptr, ptr %8, align 8, !tbaa !67
  %18 = call noundef nonnull align 8 dereferenceable(16) ptr @_ZN7obj_refI4expr11ast_managerEaSEPS0_(ptr noundef nonnull align 8 dereferenceable(16) %17, ptr noundef %16)
  ret i32 1
}

; Function Attrs: mustprogress uwtable
define hidden noundef i32 @_ZN11bv_rewriter19mk_bvusub_underflowEjPKP4exprR7obj_refIS0_11ast_managerE(ptr noundef nonnull align 8 dereferenceable(157) %0, i32 noundef %1, ptr noundef %2, ptr noundef nonnull align 8 dereferenceable(16) %3) #4 align 2 {
  %5 = alloca ptr, align 8
  %6 = alloca i32, align 4
  %7 = alloca ptr, align 8
  %8 = alloca ptr, align 8
  %9 = alloca i32, align 4
  store ptr %0, ptr %5, align 8, !tbaa !3
  store i32 %1, ptr %6, align 4, !tbaa !63
  store ptr %2, ptr %7, align 8, !tbaa !64
  store ptr %3, ptr %8, align 8, !tbaa !67
  %10 = load ptr, ptr %5, align 8
  call void @llvm.lifetime.start.p0(i64 4, ptr %9) #3
  %11 = load ptr, ptr %7, align 8, !tbaa !64
  %12 = getelementptr inbounds ptr, ptr %11, i64 0
  %13 = load ptr, ptr %12, align 8, !tbaa !71
  %14 = load ptr, ptr %7, align 8, !tbaa !64
  %15 = getelementptr inbounds ptr, ptr %14, i64 1
  %16 = load ptr, ptr %15, align 8, !tbaa !71
  %17 = load ptr, ptr %8, align 8, !tbaa !67
  %18 = call noundef i32 @_ZN11bv_rewriter6mk_ultEP4exprS1_R7obj_refIS0_11ast_managerE(ptr noundef nonnull align 8 dereferenceable(157) %10, ptr noundef %13, ptr noundef %16, ptr noundef nonnull align 8 dereferenceable(16) %17)
  store i32 %18, ptr %9, align 4, !tbaa !69
  %19 = load i32, ptr %9, align 4, !tbaa !69
  call void @llvm.lifetime.end.p0(i64 4, ptr %9) #3
  ret i32 %19
}